(dp0
Vengine
p1
Vpdflatex
p2
sVpackages
p3
c__builtin__
set
p4
((lp5
Vamsmath
p6
aVbabel
p7
aVlistings
p8
aVtimes
p9
aVfontenc
p10
aVgraphicx
p11
aVifthen
p12
aVfancyvrb
p13
aVinputenc
p14
aVwrapfig
p15
atp16
Rp17
sVfiles_with_guttermarks
p18
g4
((lp19
S'imf_2019_2020__12.tex'
p20
atp21
Rp22
sVsynctex
p23
I01
s.